; Function Attrs: nounwind uwtable
define void @test_note(ptr noundef %0, ...) local_unnamed_addr #0 {
  %2 = alloca [1 x %struct.__va_list_tag], align 16
  %3 = tail call i32 @test_flush_stdout() #8
  %.not = icmp eq ptr %0, null
  br i1 %.not, label %7, label %4

4:                                                ; preds = %1
  call void @llvm.lifetime.start.p0(i64 24, ptr nonnull %2) #8
  call void @llvm.va_start.p0(ptr nonnull %2)
  %5 = call i32 @test_vprintf_stderr(ptr noundef nonnull %0, ptr noundef nonnull %2) #8
  call void @llvm.va_end.p0(ptr nonnull %2)
  %6 = call i32 (ptr, ...) @test_printf_stderr(ptr noundef nonnull @.str.6) #8
  call void @llvm.lifetime.end.p0(i64 24, ptr nonnull %2) #8
  br label %7

7:                                                ; preds = %4, %1
  %8 = call i32 @test_flush_stderr() #8
  ret void
}